; Function Attrs: nounwind uwtable
define internal noundef i32 @H5FS__sinfo_free_sect_cb(ptr noundef %0, ptr nocapture readnone %1, ptr nocapture noundef readonly %2) #0 {
  %4 = getelementptr inbounds i8, ptr %2, i64 312
  %5 = load ptr, ptr %4, align 8
  %6 = getelementptr inbounds i8, ptr %5, i64 408
  %7 = load ptr, ptr %6, align 8
  %8 = getelementptr inbounds i8, ptr %0, i64 16
  %9 = load i32, ptr %8, align 8
  %10 = zext i32 %9 to i64
  %11 = getelementptr inbounds %struct.H5FS_section_class_t, ptr %7, i64 %10, i32 13
  %12 = load ptr, ptr %11, align 8
  %13 = tail call i32 %12(ptr noundef %0) #5
  ret i32 0
}